target datalayout = "e-m:e-p270:32:32-p271:32:32-p272:64:64-i64:64-i128:128-f80:128-n8:16:32:64-S128"
target triple = "x86_64-pc-linux-gnu"

%struct.strvec = type { ptr, i64, i64 }
%struct.option = type { i32, i32, ptr, ptr, ptr, ptr, i32, ptr, i64, ptr, i64, ptr }
%struct.child_process = type { %struct.strvec, %struct.strvec, i32, i32, i64, ptr, ptr, i32, i32, i32, ptr, i16, ptr }

@verbose = internal global i32 0, align 4
@.str.11 = private unnamed_addr constant [6 x i8] c"prune\00", align 1
@.str.14 = private unnamed_addr constant [6 x i8] c"fetch\00", align 1
@the_repository = external global ptr, align 8
@.str.52 = private unnamed_addr constant [3 x i8] c"-v\00", align 1
@.str.199 = private unnamed_addr constant [29 x i8] c"prune remotes after fetching\00", align 1
@builtin_remote_update_usage = internal constant [2 x ptr] [ptr @.str.205, ptr null], align 16
@.str.200 = private unnamed_addr constant [8 x i8] c"--prune\00", align 1
@.str.201 = private unnamed_addr constant [11 x i8] c"--no-prune\00", align 1
@.str.202 = private unnamed_addr constant [11 x i8] c"--multiple\00", align 1
@.str.203 = private unnamed_addr constant [8 x i8] c"default\00", align 1
@.str.204 = private unnamed_addr constant [6 x i8] c"--all\00", align 1

; Function Attrs: inlinehint nounwind uwtable
define internal void @git_config(ptr noundef %0, ptr noundef %1) #4 {
  %3 = alloca ptr, align 8
  %4 = alloca ptr, align 8
  store ptr %0, ptr %3, align 8, !tbaa !15
  store ptr %1, ptr %4, align 8, !tbaa !15
  %5 = load ptr, ptr @the_repository, align 8, !tbaa !13
  %6 = load ptr, ptr %3, align 8, !tbaa !15
  %7 = load ptr, ptr %4, align 8, !tbaa !15
  call void @repo_config(ptr noundef %5, ptr noundef %6, ptr noundef %7)
  ret void
}

; Function Attrs: nounwind uwtable
define internal i32 @update(i32 noundef %0, ptr noundef %1, ptr noundef %2, ptr noundef %3) #0 {
  %5 = alloca i32, align 4
  %6 = alloca ptr, align 8
  %7 = alloca ptr, align 8
  %8 = alloca ptr, align 8
  %9 = alloca i32, align 4
  %10 = alloca i32, align 4
  %11 = alloca [2 x %struct.option], align 16
  %12 = alloca %struct.child_process, align 8
  %13 = alloca i32, align 4
  store i32 %0, ptr %5, align 4, !tbaa !4
  store ptr %1, ptr %6, align 8, !tbaa !8
  store ptr %2, ptr %7, align 8, !tbaa !11
  store ptr %3, ptr %8, align 8, !tbaa !13
  call void @llvm.lifetime.start.p0(i64 4, ptr %9) #11
  call void @llvm.lifetime.start.p0(i64 4, ptr %10) #11
  store i32 -1, ptr %10, align 4, !tbaa !4
  call void @llvm.lifetime.start.p0(i64 176, ptr %11) #11
  %14 = getelementptr inbounds nuw %struct.option, ptr %11, i32 0, i32 0
  store i32 9, ptr %14, align 8, !tbaa !16
  %15 = getelementptr inbounds nuw %struct.option, ptr %11, i32 0, i32 1
  store i32 112, ptr %15, align 4, !tbaa !19
  %16 = getelementptr inbounds nuw %struct.option, ptr %11, i32 0, i32 2
  store ptr @.str.11, ptr %16, align 8, !tbaa !20
  %17 = getelementptr inbounds nuw %struct.option, ptr %11, i32 0, i32 3
  store ptr %10, ptr %17, align 8, !tbaa !21
  %18 = getelementptr inbounds nuw %struct.option, ptr %11, i32 0, i32 4
  store ptr null, ptr %18, align 8, !tbaa !22
  %19 = getelementptr inbounds nuw %struct.option, ptr %11, i32 0, i32 5
  store ptr @.str.199, ptr %19, align 8, !tbaa !23
  %20 = getelementptr inbounds nuw %struct.option, ptr %11, i32 0, i32 6
  store i32 2, ptr %20, align 8, !tbaa !24
  %21 = getelementptr i8, ptr %11, i64 44
  call void @llvm.memset.p0.i64(ptr align 4 %21, i8 0, i64 4, i1 false)
  %22 = getelementptr inbounds nuw %struct.option, ptr %11, i32 0, i32 7
  store ptr null, ptr %22, align 8, !tbaa !25
  %23 = getelementptr inbounds nuw %struct.option, ptr %11, i32 0, i32 8
  store i64 1, ptr %23, align 8, !tbaa !26
  %24 = getelementptr inbounds nuw %struct.option, ptr %11, i32 0, i32 9
  store ptr null, ptr %24, align 8, !tbaa !27
  %25 = getelementptr inbounds nuw %struct.option, ptr %11, i32 0, i32 10
  store i64 0, ptr %25, align 8, !tbaa !28
  %26 = getelementptr inbounds nuw %struct.option, ptr %11, i32 0, i32 11
  store ptr null, ptr %26, align 8, !tbaa !29
  %27 = getelementptr inbounds %struct.option, ptr %11, i64 1
  call void @llvm.memset.p0.i64(ptr align 8 %27, i8 0, i64 88, i1 false)
  %28 = getelementptr inbounds nuw %struct.option, ptr %27, i32 0, i32 0
  store i32 0, ptr %28, align 8, !tbaa !16
  call void @llvm.lifetime.start.p0(i64 120, ptr %12) #11
  call void @llvm.memcpy.p0.p0.i64(ptr align 8 %12, ptr align 8 @__const.update.cmd, i64 120, i1 false)
  call void @llvm.lifetime.start.p0(i64 4, ptr %13) #11
  store i32 0, ptr %13, align 4, !tbaa !4
  %29 = load i32, ptr %5, align 4, !tbaa !4
  %30 = load ptr, ptr %6, align 8, !tbaa !8
  %31 = load ptr, ptr %7, align 8, !tbaa !11
  %32 = getelementptr inbounds [2 x %struct.option], ptr %11, i64 0, i64 0
  %33 = call i32 @parse_options(i32 noundef %29, ptr noundef %30, ptr noundef %31, ptr noundef %32, ptr noundef @builtin_remote_update_usage, i32 noundef 4)
  store i32 %33, ptr %5, align 4, !tbaa !4
  %34 = getelementptr inbounds nuw %struct.child_process, ptr %12, i32 0, i32 0
  %35 = call ptr @strvec_push(ptr noundef %34, ptr noundef @.str.14)
  %36 = load i32, ptr %10, align 4, !tbaa !4
  %37 = icmp ne i32 %36, -1
  br i1 %37, label %38, label %44

38:                                               ; preds = %4
  %39 = getelementptr inbounds nuw %struct.child_process, ptr %12, i32 0, i32 0
  %40 = load i32, ptr %10, align 4, !tbaa !4
  %41 = icmp ne i32 %40, 0
  %42 = select i1 %41, ptr @.str.200, ptr @.str.201
  %43 = call ptr @strvec_push(ptr noundef %39, ptr noundef %42)
  br label %44

44:                                               ; preds = %38, %4
  %45 = load i32, ptr @verbose, align 4, !tbaa !4
  %46 = icmp ne i32 %45, 0
  br i1 %46, label %47, label %50

47:                                               ; preds = %44
  %48 = getelementptr inbounds nuw %struct.child_process, ptr %12, i32 0, i32 0
  %49 = call ptr @strvec_push(ptr noundef %48, ptr noundef @.str.52)
  br label %50

50:                                               ; preds = %47, %44
  %51 = getelementptr inbounds nuw %struct.child_process, ptr %12, i32 0, i32 0
  %52 = call ptr @strvec_push(ptr noundef %51, ptr noundef @.str.202)
  %53 = load i32, ptr %5, align 4, !tbaa !4
  %54 = icmp slt i32 %53, 2
  br i1 %54, label %55, label %58

55:                                               ; preds = %50
  %56 = getelementptr inbounds nuw %struct.child_process, ptr %12, i32 0, i32 0
  %57 = call ptr @strvec_push(ptr noundef %56, ptr noundef @.str.203)
  br label %58

58:                                               ; preds = %55, %50
  store i32 1, ptr %9, align 4, !tbaa !4
  br label %59

59:                                               ; preds = %71, %58
  %60 = load i32, ptr %9, align 4, !tbaa !4
  %61 = load i32, ptr %5, align 4, !tbaa !4
  %62 = icmp slt i32 %60, %61
  br i1 %62, label %63, label %74

63:                                               ; preds = %59
  %64 = getelementptr inbounds nuw %struct.child_process, ptr %12, i32 0, i32 0
  %65 = load ptr, ptr %6, align 8, !tbaa !8
  %66 = load i32, ptr %9, align 4, !tbaa !4
  %67 = sext i32 %66 to i64
  %68 = getelementptr inbounds ptr, ptr %65, i64 %67
  %69 = load ptr, ptr %68, align 8, !tbaa !11
  %70 = call ptr @strvec_push(ptr noundef %64, ptr noundef %69)
  br label %71

71:                                               ; preds = %63
  %72 = load i32, ptr %9, align 4, !tbaa !4
  %73 = add nsw i32 %72, 1
  store i32 %73, ptr %9, align 4, !tbaa !4
  br label %59, !llvm.loop !121

74:                                               ; preds = %59
  %75 = getelementptr inbounds nuw %struct.child_process, ptr %12, i32 0, i32 0
  %76 = getelementptr inbounds nuw %struct.strvec, ptr %75, i32 0, i32 0
  %77 = load ptr, ptr %76, align 8, !tbaa !122
  %78 = getelementptr inbounds nuw %struct.child_process, ptr %12, i32 0, i32 0
  %79 = getelementptr inbounds nuw %struct.strvec, ptr %78, i32 0, i32 1
  %80 = load i64, ptr %79, align 8, !tbaa !124
  %81 = sub i64 %80, 1
  %82 = getelementptr inbounds nuw ptr, ptr %77, i64 %81
  %83 = load ptr, ptr %82, align 8, !tbaa !11
  %84 = call i32 @strcmp(ptr noundef %83, ptr noundef @.str.203) #14
  %85 = icmp eq i32 %84, 0
  br i1 %85, label %86, label %94

86:                                               ; preds = %74
  call void @git_config(ptr noundef @get_remote_default, ptr noundef %13)
  %87 = load i32, ptr %13, align 4, !tbaa !4
  %88 = icmp ne i32 %87, 0
  br i1 %88, label %93, label %89

89:                                               ; preds = %86
  %90 = getelementptr inbounds nuw %struct.child_process, ptr %12, i32 0, i32 0
  call void @strvec_pop(ptr noundef %90)
  %91 = getelementptr inbounds nuw %struct.child_process, ptr %12, i32 0, i32 0
  %92 = call ptr @strvec_push(ptr noundef %91, ptr noundef @.str.204)
  br label %93

93:                                               ; preds = %89, %86
  br label %94

94:                                               ; preds = %93, %74
  %95 = getelementptr inbounds nuw %struct.child_process, ptr %12, i32 0, i32 11
  %96 = load i16, ptr %95, align 8
  %97 = and i16 %96, -9
  %98 = or i16 %97, 8
  store i16 %98, ptr %95, align 8
  %99 = call i32 @run_command(ptr noundef %12)
  call void @llvm.lifetime.end.p0(i64 4, ptr %13) #11
  call void @llvm.lifetime.end.p0(i64 120, ptr %12) #11
  call void @llvm.lifetime.end.p0(i64 176, ptr %11) #11
  call void @llvm.lifetime.end.p0(i64 4, ptr %10) #11
  call void @llvm.lifetime.end.p0(i64 4, ptr %9) #11
  ret i32 %99
}