; Function Attrs: nounwind uwtable
define internal i32 @update(i32 noundef %0, ptr noundef %1, ptr noundef %2, ptr readnone captures(none) %3) #0 {
  %5 = alloca i32, align 4
  %6 = alloca [2 x %struct.option], align 16
  %7 = alloca %struct.child_process, align 8
  %8 = alloca i32, align 4
  call void @llvm.lifetime.start.p0(i64 4, ptr nonnull %5) #19
  store i32 -1, ptr %5, align 4, !tbaa !21
  call void @llvm.lifetime.start.p0(i64 176, ptr nonnull %6) #19
  store i32 9, ptr %6, align 16, !tbaa !8
  %9 = getelementptr inbounds nuw i8, ptr %6, i64 4
  store i32 112, ptr %9, align 4, !tbaa !13
  %10 = getelementptr inbounds nuw i8, ptr %6, i64 8
  store ptr @.str.11, ptr %10, align 8, !tbaa !14
  %11 = getelementptr inbounds nuw i8, ptr %6, i64 16
  store ptr %5, ptr %11, align 16, !tbaa !15
  %12 = getelementptr inbounds nuw i8, ptr %6, i64 24
  store ptr null, ptr %12, align 8, !tbaa !16
  %13 = getelementptr inbounds nuw i8, ptr %6, i64 32
  store ptr @.str.199, ptr %13, align 16, !tbaa !17
  %14 = getelementptr inbounds nuw i8, ptr %6, i64 40
  store i32 2, ptr %14, align 8, !tbaa !18
  %15 = getelementptr inbounds nuw i8, ptr %6, i64 44
  store i32 0, ptr %15, align 4
  %16 = getelementptr inbounds nuw i8, ptr %6, i64 48
  store ptr null, ptr %16, align 16, !tbaa !22
  %17 = getelementptr inbounds nuw i8, ptr %6, i64 56
  store i64 1, ptr %17, align 8, !tbaa !23
  %18 = getelementptr inbounds nuw i8, ptr %6, i64 64
  call void @llvm.memset.p0.i64(ptr noundef nonnull align 16 dereferenceable(112) %18, i8 0, i64 112, i1 false)
  call void @llvm.lifetime.start.p0(i64 120, ptr nonnull %7) #19
  call void @llvm.memcpy.p0.p0.i64(ptr noundef nonnull align 8 dereferenceable(120) %7, ptr noundef nonnull align 8 dereferenceable(120) @__const.update.cmd, i64 120, i1 false)
  call void @llvm.lifetime.start.p0(i64 4, ptr nonnull %8) #19
  store i32 0, ptr %8, align 4, !tbaa !21
  %19 = call i32 @parse_options(i32 noundef %0, ptr noundef %1, ptr noundef %2, ptr noundef nonnull %6, ptr noundef nonnull @builtin_remote_update_usage, i32 noundef 4) #19
  %20 = call ptr @strvec_push(ptr noundef nonnull %7, ptr noundef nonnull @.str.14) #19
  %21 = load i32, ptr %5, align 4, !tbaa !21
  %.not = icmp eq i32 %21, -1
  br i1 %.not, label %25, label %22

22:                                               ; preds = %4
  %.not9 = icmp eq i32 %21, 0
  %23 = select i1 %.not9, ptr @.str.201, ptr @.str.200
  %24 = call ptr @strvec_push(ptr noundef nonnull %7, ptr noundef nonnull %23) #19
  br label %25

25:                                               ; preds = %22, %4
  %26 = load i32, ptr @verbose, align 4, !tbaa !21
  %.not10 = icmp eq i32 %26, 0
  br i1 %.not10, label %29, label %27

27:                                               ; preds = %25
  %28 = call ptr @strvec_push(ptr noundef nonnull %7, ptr noundef nonnull @.str.52) #19
  br label %29

29:                                               ; preds = %27, %25
  %30 = call ptr @strvec_push(ptr noundef nonnull %7, ptr noundef nonnull @.str.202) #19
  %31 = icmp slt i32 %19, 2
  br i1 %31, label %32, label %.lr.ph.preheader

32:                                               ; preds = %29
  %33 = call ptr @strvec_push(ptr noundef nonnull %7, ptr noundef nonnull @.str.203) #19
  br label %._crit_edge

.lr.ph.preheader:                                 ; preds = %29
  %wide.trip.count = zext nneg i32 %19 to i64
  br label %.lr.ph

.lr.ph:                                           ; preds = %.lr.ph.preheader, %.lr.ph
  %indvars.iv = phi i64 [ 1, %.lr.ph.preheader ], [ %indvars.iv.next, %.lr.ph ]
  %34 = getelementptr inbounds nuw ptr, ptr %1, i64 %indvars.iv
  %35 = load ptr, ptr %34, align 8, !tbaa !20
  %36 = call ptr @strvec_push(ptr noundef nonnull %7, ptr noundef %35) #19
  %indvars.iv.next = add nuw nsw i64 %indvars.iv, 1
  %exitcond.not = icmp eq i64 %indvars.iv.next, %wide.trip.count
  br i1 %exitcond.not, label %._crit_edge, label %.lr.ph, !llvm.loop !122

._crit_edge:                                      ; preds = %.lr.ph, %32
  %37 = load ptr, ptr %7, align 8, !tbaa !123
  %38 = getelementptr inbounds nuw i8, ptr %7, i64 8
  %39 = load i64, ptr %38, align 8, !tbaa !125
  %40 = getelementptr ptr, ptr %37, i64 %39
  %41 = getelementptr i8, ptr %40, i64 -8
  %42 = load ptr, ptr %41, align 8, !tbaa !20
  %43 = call i32 @strcmp(ptr noundef nonnull dereferenceable(1) %42, ptr noundef nonnull dereferenceable(8) @.str.203) #21
  %44 = icmp eq i32 %43, 0
  br i1 %44, label %45, label %50

45:                                               ; preds = %._crit_edge
  %46 = load ptr, ptr @the_repository, align 8, !tbaa !26
  call void @repo_config(ptr noundef %46, ptr noundef nonnull @get_remote_default, ptr noundef nonnull %8) #19
  %47 = load i32, ptr %8, align 4, !tbaa !21
  %.not11 = icmp eq i32 %47, 0
  br i1 %.not11, label %48, label %50

48:                                               ; preds = %45
  call void @strvec_pop(ptr noundef nonnull %7) #19
  %49 = call ptr @strvec_push(ptr noundef nonnull %7, ptr noundef nonnull @.str.204) #19
  br label %50

50:                                               ; preds = %45, %48, %._crit_edge
  %51 = getelementptr inbounds nuw i8, ptr %7, i64 104
  %52 = load i16, ptr %51, align 8
  %53 = or i16 %52, 8
  store i16 %53, ptr %51, align 8
  %54 = call i32 @run_command(ptr noundef nonnull %7) #19
  call void @llvm.lifetime.end.p0(i64 4, ptr nonnull %8) #19
  call void @llvm.lifetime.end.p0(i64 120, ptr nonnull %7) #19
  call void @llvm.lifetime.end.p0(i64 176, ptr nonnull %6) #19
  call void @llvm.lifetime.end.p0(i64 4, ptr nonnull %5) #19
  ret i32 %54
}